; Function Attrs: nounwind uwtable
define void @Gia_Iso2ManCollectOrder2_rec(ptr noundef %0, i32 noundef %1, ptr noundef %2) local_unnamed_addr #0 {
  %4 = getelementptr i8, ptr %0, i64 176
  %.val39 = load i32, ptr %4, align 8, !tbaa !44
  %5 = getelementptr i8, ptr %0, i64 616
  %.val40 = load ptr, ptr %5, align 8, !tbaa !45
  %6 = sext i32 %1 to i64
  %7 = getelementptr inbounds i32, ptr %.val40, i64 %6
  %8 = load i32, ptr %7, align 4, !tbaa !34
  %.not = icmp eq i32 %8, %.val39
  br i1 %.not, label %68, label %9

9:                                                ; preds = %3
  store i32 %.val39, ptr %7, align 4, !tbaa !34
  %10 = getelementptr i8, ptr %0, i64 32
  %.val = load ptr, ptr %10, align 8, !tbaa !33
  %11 = getelementptr inbounds %struct.Gia_Obj_t_, ptr %.val, i64 %6
  %.val36 = load i64, ptr %11, align 4
  %12 = and i64 %.val36, 2147483648
  %.not.i = icmp eq i64 %12, 0
  %13 = and i64 %.val36, 536870911
  %14 = icmp ne i64 %13, 536870911
  %narrow.i = and i1 %.not.i, %14
  br i1 %narrow.i, label %15, label %33

15:                                               ; preds = %9
  %16 = sub nsw i64 0, %13
  %17 = getelementptr inbounds %struct.Gia_Obj_t_, ptr %11, i64 %16, i32 1
  %18 = load i32, ptr %17, align 4, !tbaa !37
  %19 = lshr i64 %.val36, 32
  %20 = and i64 %19, 536870911
  %21 = sub nsw i64 0, %20
  %22 = getelementptr inbounds %struct.Gia_Obj_t_, ptr %11, i64 %21, i32 1
  %23 = load i32, ptr %22, align 4, !tbaa !37
  %.not35 = icmp ugt i32 %18, %23
  br i1 %.not35, label %29, label %24

24:                                               ; preds = %15
  %25 = trunc i64 %.val36 to i32
  %26 = and i32 %25, 536870911
  %27 = sub nsw i32 %1, %26
  tail call void @Gia_Iso2ManCollectOrder2_rec(ptr noundef nonnull %0, i32 noundef %27, ptr noundef %2)
  %.val47 = load i64, ptr %11, align 4
  %28 = lshr i64 %.val47, 32
  br label %Gia_ObjIsPi.exit.sink.split

29:                                               ; preds = %15
  %30 = trunc nuw i64 %19 to i32
  %31 = and i32 %30, 536870911
  %32 = sub nsw i32 %1, %31
  tail call void @Gia_Iso2ManCollectOrder2_rec(ptr noundef nonnull %0, i32 noundef %32, ptr noundef %2)
  %.val44 = load i64, ptr %11, align 4
  br label %Gia_ObjIsPi.exit.sink.split

33:                                               ; preds = %9
  %.not.i48 = icmp ne i64 %12, 0
  %narrow.i49 = and i1 %.not.i48, %14
  br i1 %narrow.i49, label %Gia_ObjIsPi.exit.sink.split, label %Gia_ObjIsPi.exit

Gia_ObjIsPi.exit.sink.split:                      ; preds = %33, %29, %24
  %.val36.sink = phi i64 [ %28, %24 ], [ %.val44, %29 ], [ %.val36, %33 ]
  %34 = trunc i64 %.val36.sink to i32
  %35 = and i32 %34, 536870911
  %36 = sub nsw i32 %1, %35
  tail call void @Gia_Iso2ManCollectOrder2_rec(ptr noundef nonnull %0, i32 noundef %36, ptr noundef %2)
  br label %Gia_ObjIsPi.exit

Gia_ObjIsPi.exit:                                 ; preds = %Gia_ObjIsPi.exit.sink.split, %33
  %37 = getelementptr inbounds nuw i8, ptr %2, i64 4
  %38 = load i32, ptr %37, align 4, !tbaa !28
  %39 = load i32, ptr %2, align 8, !tbaa !31
  %40 = icmp eq i32 %38, %39
  br i1 %40, label %41, label %.Vec_IntGrow.exit10_crit_edge.i

.Vec_IntGrow.exit10_crit_edge.i:                  ; preds = %Gia_ObjIsPi.exit
  %.phi.trans.insert.i = getelementptr inbounds nuw i8, ptr %2, i64 8
  %.pre.i = load ptr, ptr %.phi.trans.insert.i, align 8, !tbaa !32
  br label %Vec_IntPush.exit

41:                                               ; preds = %Gia_ObjIsPi.exit
  %42 = icmp slt i32 %38, 16
  br i1 %42, label %43, label %51

43:                                               ; preds = %41
  %44 = getelementptr inbounds nuw i8, ptr %2, i64 8
  %45 = load ptr, ptr %44, align 8, !tbaa !32
  %.not9.i.i = icmp eq ptr %45, null
  br i1 %.not9.i.i, label %48, label %46

46:                                               ; preds = %43
  %47 = tail call dereferenceable_or_null(64) ptr @realloc(ptr noundef nonnull %45, i64 noundef 64) #25
  br label %Vec_IntGrow.exit.i

48:                                               ; preds = %43
  %49 = tail call noalias dereferenceable_or_null(64) ptr @malloc(i64 noundef 64) #24
  br label %Vec_IntGrow.exit.i

Vec_IntGrow.exit.i:                               ; preds = %48, %46
  %50 = phi ptr [ %47, %46 ], [ %49, %48 ]
  store ptr %50, ptr %44, align 8, !tbaa !32
  store i32 16, ptr %2, align 8, !tbaa !31
  br label %Vec_IntPush.exit

51:                                               ; preds = %41
  %52 = shl nuw nsw i32 %38, 1
  %53 = getelementptr inbounds nuw i8, ptr %2, i64 8
  %54 = load ptr, ptr %53, align 8, !tbaa !32
  %.not9.i9.i = icmp eq ptr %54, null
  %55 = zext nneg i32 %52 to i64
  %56 = shl nuw nsw i64 %55, 2
  br i1 %.not9.i9.i, label %59, label %57

57:                                               ; preds = %51
  %58 = tail call ptr @realloc(ptr noundef nonnull %54, i64 noundef %56) #25
  br label %61

59:                                               ; preds = %51
  %60 = tail call noalias ptr @malloc(i64 noundef %56) #24
  br label %61

61:                                               ; preds = %59, %57
  %62 = phi ptr [ %58, %57 ], [ %60, %59 ]
  store ptr %62, ptr %53, align 8, !tbaa !32
  store i32 %52, ptr %2, align 8, !tbaa !31
  br label %Vec_IntPush.exit

Vec_IntPush.exit:                                 ; preds = %.Vec_IntGrow.exit10_crit_edge.i, %Vec_IntGrow.exit.i, %61
  %63 = phi ptr [ %.pre.i, %.Vec_IntGrow.exit10_crit_edge.i ], [ %62, %61 ], [ %50, %Vec_IntGrow.exit.i ]
  %64 = load i32, ptr %37, align 4, !tbaa !28
  %65 = add nsw i32 %64, 1
  store i32 %65, ptr %37, align 4, !tbaa !28
  %66 = sext i32 %64 to i64
  %67 = getelementptr inbounds i32, ptr %63, i64 %66
  store i32 %1, ptr %67, align 4, !tbaa !34
  br label %68

68:                                               ; preds = %3, %Vec_IntPush.exit
  ret void
}